; Function Attrs: mustprogress uwtable
define noundef zeroext i1 @_ZNK4GURL8SchemeIsEN4base16BasicStringPieceINSt7__cxx1112basic_stringIcSt11char_traitsIcESaIcEEEEE(ptr noundef nonnull readonly align 8 captures(none) dereferenceable(120) %0, ptr %1, i64 %2) local_unnamed_addr #0 align 2 {
  %4 = alloca %"class.base::BasicStringPiece", align 8
  %5 = alloca %"class.base::BasicStringPiece", align 8
  store ptr %1, ptr %4, align 8
  %6 = getelementptr inbounds nuw i8, ptr %4, i64 8
  store i64 %2, ptr %6, align 8
  %7 = getelementptr inbounds nuw i8, ptr %0, i64 44
  %8 = load i32, ptr %7, align 4, !tbaa !33
  %9 = icmp slt i32 %8, 1
  br i1 %9, label %10, label %12

10:                                               ; preds = %3
  %11 = icmp eq i64 %2, 0
  br label %20

12:                                               ; preds = %3
  call void @llvm.lifetime.start.p0(i64 16, ptr nonnull %5) #17
  %13 = getelementptr inbounds nuw i8, ptr %0, i64 40
  %14 = load i32, ptr %13, align 8
  %15 = sext i32 %14 to i64
  %16 = load ptr, ptr %0, align 8
  %17 = getelementptr inbounds nuw i8, ptr %16, i64 %15
  %.sroa.3.0.i.i = zext nneg i32 %8 to i64
  store ptr %17, ptr %5, align 8
  %18 = getelementptr inbounds nuw i8, ptr %5, i64 8
  store i64 %.sroa.3.0.i.i, ptr %18, align 8
  %19 = call noundef zeroext i1 @_ZN4baseeqERKNS_16BasicStringPieceINSt7__cxx1112basic_stringIcSt11char_traitsIcESaIcEEEEES9_(ptr noundef nonnull align 8 dereferenceable(16) %5, ptr noundef nonnull align 8 dereferenceable(16) %4)
  call void @llvm.lifetime.end.p0(i64 16, ptr nonnull %5) #17
  br label %20

20:                                               ; preds = %12, %10
  %.0 = phi i1 [ %11, %10 ], [ %19, %12 ]
  ret i1 %.0
}